; Function Attrs: mustprogress uwtable
define void @_ZN3gmx8internal21printFatalErrorHeaderEP8_IO_FILEPKcS4_S4_i(ptr noundef captures(none) %0, ptr noundef %1, ptr noundef %2, ptr noundef %3, i32 noundef %4) local_unnamed_addr #0 personality ptr @__gxx_personality_v0 {
  %6 = alloca %"class.std::__cxx11::basic_string", align 8
  %7 = invoke noundef nonnull align 8 dereferenceable(8) ptr @_ZN3gmx17getProgramContextEv()
          to label %8 unwind label %13

8:                                                ; preds = %5
  %9 = load ptr, ptr %7, align 8, !tbaa !4
  %10 = getelementptr inbounds nuw i8, ptr %9, i64 8
  %11 = load ptr, ptr %10, align 8
  %12 = invoke noundef ptr %11(ptr noundef nonnull align 8 dereferenceable(8) %7)
          to label %21 unwind label %13

13:                                               ; preds = %8, %5
  %14 = landingpad { ptr, i32 }
          cleanup
          catch ptr @_ZTISt9exception
  %15 = extractvalue { ptr, i32 } %14, 1
  %16 = tail call i32 @llvm.eh.typeid.for.p0(ptr nonnull @_ZTISt9exception) #11
  %17 = icmp eq i32 %15, %16
  br i1 %17, label %18, label %48

18:                                               ; preds = %13
  %19 = extractvalue { ptr, i32 } %14, 0
  %20 = tail call ptr @__cxa_begin_catch(ptr %19) #11
  tail call void @__cxa_end_catch()
  br label %21

21:                                               ; preds = %8, %18
  %.0 = phi ptr [ @.str, %18 ], [ %12, %8 ]
  %22 = tail call i64 @fwrite(ptr nonnull @.str.1, i64 57, i64 1, ptr %0)
  %23 = tail call noundef ptr @_Z11gmx_versionv()
  %24 = tail call i32 (ptr, ptr, ...) @fprintf(ptr noundef %0, ptr noundef nonnull @.str.2, ptr noundef %.0, ptr noundef %23) #11
  %.not = icmp eq ptr %3, null
  br i1 %.not, label %36, label %25

25:                                               ; preds = %21
  call void @llvm.lifetime.start.p0(i64 32, ptr nonnull %6) #11
  call void @_ZN3gmx17stripSourcePrefixB5cxx11EPKc(ptr dead_on_unwind nonnull writable sret(%"class.std::__cxx11::basic_string") align 8 %6, ptr noundef nonnull %3)
  %26 = load ptr, ptr %6, align 8, !tbaa !7
  %27 = call i32 (ptr, ptr, ...) @fprintf(ptr noundef %0, ptr noundef nonnull @.str.3, ptr noundef %26, i32 noundef %4) #11
  %28 = load ptr, ptr %6, align 8, !tbaa !7
  %29 = getelementptr inbounds nuw i8, ptr %6, i64 16
  %30 = icmp eq ptr %28, %29
  br i1 %30, label %_ZNKSt7__cxx1112basic_stringIcSt11char_traitsIcESaIcEE11_M_is_localEv.exit.thread.i.i, label %_ZNKSt7__cxx1112basic_stringIcSt11char_traitsIcESaIcEE11_M_is_localEv.exit.i.i

_ZNKSt7__cxx1112basic_stringIcSt11char_traitsIcESaIcEE11_M_is_localEv.exit.thread.i.i: ; preds = %25
  %31 = getelementptr inbounds nuw i8, ptr %6, i64 8
  %32 = load i64, ptr %31, align 8, !tbaa !14
  %33 = icmp ult i64 %32, 16
  call void @llvm.assume(i1 %33)
  br label %_ZNSt7__cxx1112basic_stringIcSt11char_traitsIcESaIcEED2Ev.exit

_ZNKSt7__cxx1112basic_stringIcSt11char_traitsIcESaIcEE11_M_is_localEv.exit.i.i: ; preds = %25
  %34 = load i64, ptr %29, align 8, !tbaa !15
  %35 = add i64 %34, 1
  call void @_ZdlPvm(ptr noundef %28, i64 noundef %35) #12
  br label %_ZNSt7__cxx1112basic_stringIcSt11char_traitsIcESaIcEED2Ev.exit

_ZNSt7__cxx1112basic_stringIcSt11char_traitsIcESaIcEED2Ev.exit: ; preds = %_ZNKSt7__cxx1112basic_stringIcSt11char_traitsIcESaIcEE11_M_is_localEv.exit.thread.i.i, %_ZNKSt7__cxx1112basic_stringIcSt11char_traitsIcESaIcEE11_M_is_localEv.exit.i.i
  call void @llvm.lifetime.end.p0(i64 32, ptr nonnull %6) #11
  br label %36

36:                                               ; preds = %_ZNSt7__cxx1112basic_stringIcSt11char_traitsIcESaIcEED2Ev.exit, %21
  %.not19 = icmp eq ptr %2, null
  br i1 %.not19, label %39, label %37

37:                                               ; preds = %36
  %38 = call i32 (ptr, ptr, ...) @fprintf(ptr noundef %0, ptr noundef nonnull @.str.4, ptr noundef nonnull %2) #11
  br label %39

39:                                               ; preds = %37, %36
  %40 = call noundef i32 @_Z12gmx_node_numv()
  %41 = icmp sgt i32 %40, 1
  br i1 %41, label %42, label %46

42:                                               ; preds = %39
  %43 = call noundef i32 @_Z13gmx_node_rankv()
  %44 = call noundef i32 @_Z12gmx_node_numv()
  %45 = call i32 (ptr, ptr, ...) @fprintf(ptr noundef %0, ptr noundef nonnull @.str.5, i32 noundef %43, i32 noundef %44) #11
  br label %46

46:                                               ; preds = %42, %39
  %fputc = call i32 @fputc(i32 10, ptr %0)
  %47 = call i32 (ptr, ptr, ...) @fprintf(ptr noundef %0, ptr noundef nonnull @.str.7, ptr noundef %1) #11
  ret void

48:                                               ; preds = %13
  resume { ptr, i32 } %14
}